; Function Attrs: nounwind uwtable
define internal ptr @_blake2_blake2b_hexdigest(ptr noundef %0, ptr readnone captures(none) %1) #2 {
  %3 = alloca [64 x i8], align 16
  call void @llvm.lifetime.start.p0(i64 64, ptr nonnull %3) #9
  %4 = getelementptr inbounds nuw i8, ptr %0, i64 28
  %5 = load i8, ptr %4, align 4, !tbaa !59, !range !8, !noundef !9
  %6 = trunc nuw i8 %5 to i1
  br i1 %6, label %7, label %_PyMutex_Lock.exit.i

7:                                                ; preds = %2
  %8 = getelementptr inbounds nuw i8, ptr %0, i64 29
  %9 = cmpxchg ptr %8, i8 0, i8 1 seq_cst seq_cst, align 1
  %10 = extractvalue { i8, i1 } %9, 1
  br i1 %10, label %_PyMutex_Lock.exit.i, label %11

11:                                               ; preds = %7
  tail call void @PyMutex_Lock(ptr noundef nonnull %8) #9
  br label %_PyMutex_Lock.exit.i

_PyMutex_Lock.exit.i:                             ; preds = %11, %7, %2
  %12 = getelementptr inbounds nuw i8, ptr %0, i64 24
  %13 = load i32, ptr %12, align 8, !tbaa !42
  %14 = getelementptr inbounds nuw i8, ptr %0, i64 16
  %15 = load ptr, ptr %14, align 8, !tbaa !31
  switch i32 %13, label %24 [
    i32 3, label %16
    i32 2, label %18
    i32 1, label %20
    i32 0, label %22
  ]

16:                                               ; preds = %_PyMutex_Lock.exit.i
  %17 = call zeroext i8 @python_hashlib_Hacl_Hash_Blake2b_Simd256_digest(ptr noundef %15, ptr noundef nonnull %3) #9
  br label %25

18:                                               ; preds = %_PyMutex_Lock.exit.i
  %19 = call zeroext i8 @python_hashlib_Hacl_Hash_Blake2s_Simd128_digest(ptr noundef %15, ptr noundef nonnull %3) #9
  br label %25

20:                                               ; preds = %_PyMutex_Lock.exit.i
  %21 = call zeroext i8 @python_hashlib_Hacl_Hash_Blake2b_digest(ptr noundef %15, ptr noundef nonnull %3) #9
  br label %25

22:                                               ; preds = %_PyMutex_Lock.exit.i
  %23 = call zeroext i8 @python_hashlib_Hacl_Hash_Blake2s_digest(ptr noundef %15, ptr noundef nonnull %3) #9
  br label %25

24:                                               ; preds = %_PyMutex_Lock.exit.i
  unreachable

25:                                               ; preds = %22, %20, %18, %16
  %.0.i = phi i8 [ %23, %22 ], [ %21, %20 ], [ %19, %18 ], [ %17, %16 ]
  %26 = load i8, ptr %4, align 4, !tbaa !59, !range !8, !noundef !9
  %27 = trunc nuw i8 %26 to i1
  br i1 %27, label %28, label %_blake2_blake2b_hexdigest_impl.exit

28:                                               ; preds = %25
  %29 = getelementptr inbounds nuw i8, ptr %0, i64 29
  %30 = cmpxchg ptr %29, i8 1, i8 0 seq_cst seq_cst, align 1
  %31 = extractvalue { i8, i1 } %30, 1
  br i1 %31, label %_blake2_blake2b_hexdigest_impl.exit, label %32

32:                                               ; preds = %28
  call void @PyMutex_Unlock(ptr noundef nonnull %29) #9
  br label %_blake2_blake2b_hexdigest_impl.exit

_blake2_blake2b_hexdigest_impl.exit:              ; preds = %25, %28, %32
  %33 = zext i8 %.0.i to i64
  %34 = call ptr @_Py_strhex(ptr noundef nonnull %3, i64 noundef %33) #9
  call void @llvm.lifetime.end.p0(i64 64, ptr nonnull %3) #9
  ret ptr %34
}